; Function Attrs: nounwind uwtable
define i64 @Java_sun_jvm_hotspot_asm_Disassembler_load_1library(ptr noundef %0, ptr nocapture noundef readnone %1, ptr noundef %2) local_unnamed_addr #0 {
  %4 = load ptr, ptr %0, align 8
  %5 = getelementptr inbounds i8, ptr %4, i64 1352
  %6 = load ptr, ptr %5, align 8
  %7 = tail call ptr %6(ptr noundef nonnull %0, ptr noundef %2, ptr noundef null) #6
  %8 = icmp eq ptr %7, null
  br i1 %8, label %25, label %9

9:                                                ; preds = %3
  %10 = load ptr, ptr %0, align 8
  %11 = getelementptr inbounds i8, ptr %10, i64 120
  %12 = load ptr, ptr %11, align 8
  %13 = tail call ptr %12(ptr noundef nonnull %0) #6
  %.not = icmp eq ptr %13, null
  br i1 %.not, label %14, label %25

14:                                               ; preds = %9
  %15 = tail call ptr @dlopen(ptr noundef nonnull %7, i32 noundef 257) #6
  %.not19 = icmp eq ptr %15, null
  br i1 %.not19, label %.thread, label %16

16:                                               ; preds = %14
  %17 = tail call ptr @dlsym(ptr noundef nonnull %15, ptr noundef nonnull @.str) #6
  %18 = ptrtoint ptr %17 to i64
  %19 = icmp eq ptr %17, null
  br i1 %19, label %.thread, label %21

.thread:                                          ; preds = %14, %16
  %20 = tail call ptr @dlerror() #6
  tail call void @JNU_ThrowByName(ptr noundef nonnull %0, ptr noundef nonnull @.str.1, ptr noundef %20) #6
  br label %21

21:                                               ; preds = %.thread, %16
  %.021 = phi i64 [ 0, %.thread ], [ %18, %16 ]
  %22 = load ptr, ptr %0, align 8
  %23 = getelementptr inbounds i8, ptr %22, i64 1360
  %24 = load ptr, ptr %23, align 8
  tail call void %24(ptr noundef nonnull %0, ptr noundef %2, ptr noundef nonnull %7) #6
  br label %25

25:                                               ; preds = %3, %9, %21
  %.016 = phi i64 [ %.021, %21 ], [ 0, %9 ], [ 0, %3 ]
  ret i64 %.016
}